(dp0
S'METTS MARK'
p1
(dp2
S'to_messages'
p3
F807.0
sS'deferral_payments'
p4
S'NaN'
p5
sS'expenses'
p6
F94299.0
sS'poi'
p7
I00
sS'long_term_incentive'
p8
S'NaN'
p9
sS'email_address'
p10
S'mark.metts@enron.com'
p11
sS'from_poi_to_this_person'
p12
F38.0
sS'deferred_income'
p13
S'NaN'
p14
sS'fraction_from_poi'
p15
F0.04708798017348203
sS'restricted_stock_deferred'
p16
S'NaN'
p17
sS'shared_receipt_with_poi'
p18
F702.0
sS'loan_advances'
p19
S'NaN'
p20
sS'from_messages'
p21
F29.0
sS'other'
p22
F1740.0
sS'director_fees'
p23
S'NaN'
p24
sS'bonus'
p25
F600000.0
sS'total_stock_value'
p26
F585062.0
sS'from_this_person_to_poi'
p27
F1.0
sS'restricted_stock'
p28
F585062.0
sS'salary'
p29
F365788.0
sS'total_payments'
p30
F1061827.0
sS'fraction_to_poi'
p31
F0.034482758620689655
sS'exercised_stock_options'
p32
S'NaN'
p33
ssS'BAXTER JOHN C'
p34
(dp35
g3
S'NaN'
p36
sg4
F1295738.0
sg6
F11200.0
sg7
I00
sg8
F1586055.0
sg10
S'NaN'
p37
sg12
S'NaN'
p38
sg13
F-1386055.0
sg15
S'NaN'
p39
sg16
g17
sg18
S'NaN'
p40
sg19
g20
sg21
S'NaN'
p41
sg22
F2660303.0
sg23
g24
sg25
F1200000.0
sg26
F10623258.0
sg27
S'NaN'
p42
sg28
F3942714.0
sg29
F267102.0
sg30
F5634343.0
sg31
S'NaN'
p43
sg32
F6680544.0
ssS'ELLIOTT STEVEN'
p44
(dp45
g3
g36
sg4
g5
sg6
F78552.0
sg7
I00
sg8
g9
sg10
S'steven.elliott@enron.com'
p46
sg12
g38
sg13
F-400729.0
sg15
g39
sg16
g17
sg18
g40
sg19
g20
sg21
g41
sg22
F12961.0
sg23
g24
sg25
F350000.0
sg26
F6678735.0
sg27
g42
sg28
F1788391.0
sg29
F170941.0
sg30
F211725.0
sg31
g43
sg32
F4890344.0
ssS'CORDES WILLIAM R'
p47
(dp48
g3
F764.0
sg4
g5
sg6
S'NaN'
p49
sg7
I00
sg8
g9
sg10
S'bill.cordes@enron.com'
p50
sg12
F10.0
sg13
g14
sg15
F0.013089005235602094
sg16
g17
sg18
F58.0
sg19
g20
sg21
F12.0
sg22
S'NaN'
p51
sg23
g24
sg25
S'NaN'
p52
sg26
F1038185.0
sg27
F0.0
sg28
F386335.0
sg29
S'NaN'
p53
sg30
S'NaN'
p54
sg31
F0.0
sg32
F651850.0
ssS'HANNON KEVIN P'
p55
(dp56
g3
F1045.0
sg4
g5
sg6
F34039.0
sg7
I01
sg8
F1617011.0
sg10
S'kevin.hannon@enron.com'
p57
sg12
F32.0
sg13
F-3117011.0
sg15
F0.03062200956937799
sg16
g17
sg18
F1035.0
sg19
g20
sg21
F32.0
sg22
F11350.0
sg23
g24
sg25
F1500000.0
sg26
F6391065.0
sg27
F21.0
sg28
F853064.0
sg29
F243293.0
sg30
F288682.0
sg31
F0.65625
sg32
F5538001.0
ssS'MORDAUNT KRISTINA M'
p58
(dp59
g3
g36
sg4
g5
sg6
F35018.0
sg7
I00
sg8
g9
sg10
S'kristina.mordaunt@enron.com'
p60
sg12
g38
sg13
g14
sg15
g39
sg16
g17
sg18
g40
sg19
g20
sg21
g41
sg22
F1411.0
sg23
g24
sg25
F325000.0
sg26
F208510.0
sg27
g42
sg28
F208510.0
sg29
F267093.0
sg30
F628522.0
sg31
g43
sg32
g33
ssS'MEYER ROCKFORD G'
p61
(dp62
g3
F232.0
sg4
F1848227.0
sg6
g49
sg7
I00
sg8
g9
sg10
S'rockford.meyer@enron.com'
p63
sg12
F0.0
sg13
g14
sg15
F0.0
sg16
g17
sg18
F22.0
sg19
g20
sg21
F28.0
sg22
g51
sg23
g24
sg25
g52
sg26
F955873.0
sg27
F0.0
sg28
F462384.0
sg29
g53
sg30
F1848227.0
sg31
F0.0
sg32
F493489.0
ssS'MCMAHON JEFFREY'
p64
(dp65
g3
F2355.0
sg4
g5
sg6
F137108.0
sg7
I00
sg8
F694862.0
sg10
S'jeffrey.mcmahon@enron.com'
p66
sg12
F58.0
sg13
g14
sg15
F0.024628450106157114
sg16
g17
sg18
F2228.0
sg19
g20
sg21
F48.0
sg22
F297353.0
sg23
g24
sg25
F2600000.0
sg26
F1662855.0
sg27
F26.0
sg28
F558801.0
sg29
F370448.0
sg30
F4099771.0
sg31
F0.5416666666666666
sg32
F1104054.0
ssS'HORTON STANLEY C'
p67
(dp68
g3
F2350.0
sg4
F3131860.0
sg6
g49
sg7
I00
sg8
g9
sg10
S'stanley.horton@enron.com'
p69
sg12
F44.0
sg13
g14
sg15
F0.01872340425531915
sg16
g17
sg18
F1074.0
sg19
g20
sg21
F1073.0
sg22
g51
sg23
g24
sg25
g52
sg26
F7256648.0
sg27
F15.0
sg28
F2046079.0
sg29
g53
sg30
F3131860.0
sg31
F0.013979496738117428
sg32
F5210569.0
ssS'PIPER GREGORY F'
p70
(dp71
g3
F1238.0
sg4
F1130036.0
sg6
F43057.0
sg7
I00
sg8
g9
sg10
S'greg.piper@enron.com'
p72
sg12
F61.0
sg13
F-33333.0
sg15
F0.049273021001615507
sg16
F-409554.0
sg18
F742.0
sg19
g20
sg21
F222.0
sg22
F778.0
sg23
g24
sg25
F400000.0
sg26
F880290.0
sg27
F48.0
sg28
F409554.0
sg29
F197091.0
sg30
F1737629.0
sg31
F0.21621621621621623
sg32
F880290.0
ssS'HUMPHREY GENE E'
p73
(dp74
g3
F128.0
sg4
F2964506.0
sg6
F4994.0
sg7
I00
sg8
g9
sg10
S'gene.humphrey@enron.com'
p75
sg12
F10.0
sg13
g14
sg15
F0.078125
sg16
g17
sg18
F119.0
sg19
g20
sg21
F17.0
sg22
g51
sg23
g24
sg25
g52
sg26
F2282768.0
sg27
F17.0
sg28
S'NaN'
p76
sg29
F130724.0
sg30
F3100224.0
sg31
F1.0
sg32
F2282768.0
ssS'UMANOFF ADAM S'
p77
(dp78
g3
F111.0
sg4
g5
sg6
F53122.0
sg7
I00
sg8
g9
sg10
S'adam.umanoff@enron.com'
p79
sg12
F12.0
sg13
g14
sg15
F0.10810810810810811
sg16
g17
sg18
F41.0
sg19
g20
sg21
F18.0
sg22
g51
sg23
g24
sg25
F788750.0
sg26
S'NaN'
p80
sg27
F0.0
sg28
g76
sg29
F288589.0
sg30
F1130461.0
sg31
F0.0
sg32
g33
ssS'BLACHMAN JEREMY M'
p81
(dp82
g3
F2475.0
sg4
g5
sg6
F84208.0
sg7
I00
sg8
F831809.0
sg10
S'jeremy.blachman@enron.com'
p83
sg12
F25.0
sg13
g14
sg15
F0.010101010101010102
sg16
g17
sg18
F2326.0
sg19
g20
sg21
F14.0
sg22
F272.0
sg23
g24
sg25
F850000.0
sg26
F954354.0
sg27
F2.0
sg28
F189041.0
sg29
F248546.0
sg30
F2014835.0
sg31
F0.14285714285714285
sg32
F765313.0
ssS'SUNDE MARTIN'
p84
(dp85
g3
F2647.0
sg4
g5
sg6
g49
sg7
I00
sg8
F476451.0
sg10
S'marty.sunde@enron.com'
p86
sg12
F37.0
sg13
g14
sg15
F0.013978088401964487
sg16
g17
sg18
F2565.0
sg19
g20
sg21
F38.0
sg22
F111122.0
sg23
g24
sg25
F700000.0
sg26
F698920.0
sg27
F13.0
sg28
F698920.0
sg29
F257486.0
sg30
F1545059.0
sg31
F0.34210526315789475
sg32
g33
ssS'GIBBS DANA R'
p87
(dp88
g3
F169.0
sg4
F504610.0
sg6
g49
sg7
I00
sg8
F461912.0
sg10
S'dana.gibbs@enron.com'
p89
sg12
F0.0
sg13
g14
sg15
F0.0
sg16
g17
sg18
F23.0
sg19
g20
sg21
F12.0
sg22
g51
sg23
g24
sg25
g52
sg26
F2218275.0
sg27
F0.0
sg28
g76
sg29
g53
sg30
F966522.0
sg31
F0.0
sg32
F2218275.0
ssS'LOWRY CHARLES P'
p90
(dp91
g3
g36
sg4
g5
sg6
g49
sg7
I00
sg8
g9
sg10
g37
sg12
g38
sg13
g14
sg15
g39
sg16
F-153686.0
sg18
g40
sg19
g20
sg21
g41
sg22
g51
sg23
g24
sg25
g52
sg26
F372205.0
sg27
g42
sg28
F153686.0
sg29
g53
sg30
g54
sg31
g43
sg32
F372205.0
ssS'COLWELL WESLEY'
p92
(dp93
g3
F1758.0
sg4
F27610.0
sg6
F16514.0
sg7
I01
sg8
g9
sg10
S'wes.colwell@enron.com'
p94
sg12
F240.0
sg13
F-144062.0
sg15
F0.13651877133105803
sg16
g17
sg18
F1132.0
sg19
g20
sg21
F40.0
sg22
F101740.0
sg23
g24
sg25
F1200000.0
sg26
F698242.0
sg27
F11.0
sg28
F698242.0
sg29
F288542.0
sg30
F1490344.0
sg31
F0.275
sg32
g33
ssS'MULLER MARK S'
p95
(dp96
g3
F136.0
sg4
F842924.0
sg6
g49
sg7
I00
sg8
F1725545.0
sg10
S's..muller@enron.com'
p97
sg12
F12.0
sg13
F-719000.0
sg15
F0.08823529411764706
sg16
g17
sg18
F114.0
sg19
g20
sg21
F16.0
sg22
F947.0
sg23
g24
sg25
F1100000.0
sg26
F1416848.0
sg27
F0.0
sg28
F360528.0
sg29
F251654.0
sg30
F3202070.0
sg31
F0.0
sg32
F1056320.0
ssS'JACKSON CHARLENE R'
p98
(dp99
g3
F258.0
sg4
g5
sg6
F10181.0
sg7
I00
sg8
g9
sg10
S'charlene.jackson@enron.com'
p100
sg12
F25.0
sg13
g14
sg15
F0.09689922480620156
sg16
g17
sg18
F117.0
sg19
g20
sg21
F56.0
sg22
F2435.0
sg23
g24
sg25
F250000.0
sg26
F725735.0
sg27
F19.0
sg28
F540672.0
sg29
F288558.0
sg30
F551174.0
sg31
F0.3392857142857143
sg32
F185063.0
ssS'WESTFAHL RICHARD K'
p101
(dp102
g3
g36
sg4
g5
sg6
F51870.0
sg7
I00
sg8
F256191.0
sg10
S'dick.westfahl@enron.com'
p103
sg12
g38
sg13
F-10800.0
sg15
g39
sg16
g17
sg18
g40
sg19
g20
sg21
g41
sg22
F401130.0
sg23
g24
sg25
g52
sg26
F384930.0
sg27
g42
sg28
F384930.0
sg29
F63744.0
sg30
F762135.0
sg31
g43
sg32
g33
ssS'WALTERS GARETH W'
p104
(dp105
g3
g36
sg4
F53625.0
sg6
F33785.0
sg7
I00
sg8
g9
sg10
g37
sg12
g38
sg13
g14
sg15
g39
sg16
g17
sg18
g40
sg19
g20
sg21
g41
sg22
g51
sg23
g24
sg25
g52
sg26
F1030329.0
sg27
g42
sg28
g76
sg29
g53
sg30
F87410.0
sg31
g43
sg32
F1030329.0
ssS'WALLS JR ROBERT H'
p106
(dp107
g3
F671.0
sg4
g5
sg6
F50936.0
sg7
I00
sg8
F540751.0
sg10
S'rob.walls@enron.com'
p108
sg12
F17.0
sg13
g14
sg15
F0.02533532041728763
sg16
g17
sg18
F215.0
sg19
g20
sg21
F146.0
sg22
F2.0
sg23
g24
sg25
F850000.0
sg26
F5898997.0
sg27
F0.0
sg28
F1552453.0
sg29
F357091.0
sg30
F1798780.0
sg31
F0.0
sg32
F4346544.0
ssS'KITCHEN LOUISE'
p109
(dp110
g3
F8305.0
sg4
g5
sg6
F5774.0
sg7
I00
sg8
g9
sg10
S'louise.kitchen@enron.com'
p111
sg12
F251.0
sg13
g14
sg15
F0.030222757375075255
sg16
g17
sg18
F3669.0
sg19
g20
sg21
F1728.0
sg22
F93925.0
sg23
g24
sg25
F3100000.0
sg26
F547143.0
sg27
F194.0
sg28
F466101.0
sg29
F271442.0
sg30
F3471141.0
sg31
F0.11226851851851852
sg32
F81042.0
ssS'CHAN RONNIE'
p112
(dp113
g3
g36
sg4
g5
sg6
g49
sg7
I00
sg8
g9
sg10
g37
sg12
g38
sg13
F-98784.0
sg15
g39
sg16
F-32460.0
sg18
g40
sg19
g20
sg21
g41
sg22
g51
sg23
F98784.0
sg25
g52
sg26
g80
sg27
g42
sg28
F32460.0
sg29
g53
sg30
g54
sg31
g43
sg32
g33
ssS'BELFER ROBERT'
p114
(dp115
g3
g36
sg4
F-102500.0
sg6
g49
sg7
I00
sg8
g9
sg10
g37
sg12
g38
sg13
g14
sg15
g39
sg16
F44093.0
sg18
g40
sg19
g20
sg21
g41
sg22
g51
sg23
F3285.0
sg25
g52
sg26
F-44093.0
sg27
g42
sg28
g76
sg29
g53
sg30
F102500.0
sg31
g43
sg32
F3285.0
ssS'SHANKMAN JEFFREY A'
p116
(dp117
g3
F3221.0
sg4
g5
sg6
F178979.0
sg7
I00
sg8
F554422.0
sg10
S'jeffrey.shankman@enron.com'
p118
sg12
F94.0
sg13
g14
sg15
F0.029183483390251473
sg16
g17
sg18
F1730.0
sg19
g20
sg21
F2681.0
sg22
F1191.0
sg23
g24
sg25
F2000000.0
sg26
F2072035.0
sg27
F83.0
sg28
F630137.0
sg29
F304110.0
sg30
F3038702.0
sg31
F0.030958597538232
sg32
F1441898.0
ssS'WODRASKA JOHN'
p119
(dp120
g3
g36
sg4
g5
sg6
g49
sg7
I00
sg8
g9
sg10
S'john.wodraska@enron.com'
p121
sg12
g38
sg13
g14
sg15
g39
sg16
g17
sg18
g40
sg19
g20
sg21
g41
sg22
F189583.0
sg23
g24
sg25
g52
sg26
g80
sg27
g42
sg28
g76
sg29
g53
sg30
F189583.0
sg31
g43
sg32
g33
ssS'BERGSIEKER RICHARD P'
p122
(dp123
g3
F383.0
sg4
g5
sg6
F59175.0
sg7
I00
sg8
F180250.0
sg10
S'rick.bergsieker@enron.com'
p124
sg12
F4.0
sg13
F-485813.0
sg15
F0.010443864229765013
sg16
g17
sg18
F233.0
sg19
g20
sg21
F59.0
sg22
F427316.0
sg23
g24
sg25
F250000.0
sg26
F659249.0
sg27
F0.0
sg28
F659249.0
sg29
F187922.0
sg30
F618850.0
sg31
F0.0
sg32
g33
ssS'URQUHART JOHN A'
p125
(dp126
g3
g36
sg4
g5
sg6
F228656.0
sg7
I00
sg8
g9
sg10
g37
sg12
g38
sg13
F-36666.0
sg15
g39
sg16
g17
sg18
g40
sg19
g20
sg21
g41
sg22
g51
sg23
F36666.0
sg25
g52
sg26
g80
sg27
g42
sg28
g76
sg29
g53
sg30
F228656.0
sg31
g43
sg32
g33
ssS'BIBI PHILIPPE A'
p127
(dp128
g3
F1607.0
sg4
g5
sg6
F38559.0
sg7
I00
sg8
F369721.0
sg10
S'philippe.bibi@enron.com'
p129
sg12
F23.0
sg13
g14
sg15
F0.01431238332296204
sg16
g17
sg18
F1336.0
sg19
g20
sg21
F40.0
sg22
F425688.0
sg23
g24
sg25
F1000000.0
sg26
F1843816.0
sg27
F8.0
sg28
F378082.0
sg29
F213625.0
sg30
F2047593.0
sg31
F0.2
sg32
F1465734.0
ssS'PIRO JIM'
p130
(dp131
g3
F58.0
sg4
g5
sg6
g49
sg7
I00
sg8
g9
sg10
S'jim.piro@enron.com'
p132
sg12
F0.0
sg13
g14
sg15
F0.0
sg16
g17
sg18
F3.0
sg19
g20
sg21
F16.0
sg22
g51
sg23
g24
sg25
g52
sg26
F47304.0
sg27
F1.0
sg28
F47304.0
sg29
g53
sg30
g54
sg31
F0.0625
sg32
g33
ssS'RIEKER PAULA H'
p133
(dp134
g3
F1328.0
sg4
F214678.0
sg6
F33271.0
sg7
I01
sg8
g9
sg10
S'paula.rieker@enron.com'
p135
sg12
F35.0
sg13
F-100000.0
sg15
F0.02635542168674699
sg16
g17
sg18
F1258.0
sg19
g20
sg21
F82.0
sg22
F1950.0
sg23
g24
sg25
F700000.0
sg26
F1918887.0
sg27
F48.0
sg28
F283649.0
sg29
F249201.0
sg30
F1099100.0
sg31
F0.5853658536585366
sg32
F1635238.0
ssS'WHALEY DAVID A'
p136
(dp137
g3
g36
sg4
g5
sg6
g49
sg7
I00
sg8
g9
sg10
g37
sg12
g38
sg13
g14
sg15
g39
sg16
g17
sg18
g40
sg19
g20
sg21
g41
sg22
g51
sg23
g24
sg25
g52
sg26
F98718.0
sg27
g42
sg28
g76
sg29
g53
sg30
g54
sg31
g43
sg32
F98718.0
ssS'BECK SALLY W'
p138
(dp139
g3
F7315.0
sg4
g5
sg6
F37172.0
sg7
I00
sg8
g9
sg10
S'sally.beck@enron.com'
p140
sg12
F144.0
sg13
g14
sg15
F0.01968557758031442
sg16
g17
sg18
F2639.0
sg19
g20
sg21
F4343.0
sg22
F566.0
sg23
g24
sg25
F700000.0
sg26
F126027.0
sg27
F386.0
sg28
F126027.0
sg29
F231330.0
sg30
F969068.0
sg31
F0.08887865530739121
sg32
g33
ssS'HAUG DAVID L'
p141
(dp142
g3
F573.0
sg4
g5
sg6
F475.0
sg7
I00
sg8
g9
sg10
S'david.haug@enron.com'
p143
sg12
F4.0
sg13
g14
sg15
F0.006980802792321117
sg16
g17
sg18
F471.0
sg19
g20
sg21
F19.0
sg22
g51
sg23
g24
sg25
g52
sg26
F2217299.0
sg27
F7.0
sg28
F2217299.0
sg29
g53
sg30
F475.0
sg31
F0.3684210526315789
sg32
g33
ssS'ECHOLS JOHN B'
p144
(dp145
g3
g36
sg4
g5
sg6
F21530.0
sg7
I00
sg8
F2234774.0
sg10
S'john.echols@enron.com'
p146
sg12
g38
sg13
g14
sg15
g39
sg16
g17
sg18
g40
sg19
g20
sg21
g41
sg22
F53775.0
sg23
g24
sg25
F200000.0
sg26
F1008941.0
sg27
g42
sg28
F407503.0
sg29
F182245.0
sg30
F2692324.0
sg31
g43
sg32
F601438.0
ssS'MENDELSOHN JOHN'
p147
(dp148
g3
g36
sg4
g5
sg6
F148.0
sg7
I00
sg8
g9
sg10
g37
sg12
g38
sg13
F-103750.0
sg15
g39
sg16
g17
sg18
g40
sg19
g20
sg21
g41
sg22
g51
sg23
F103750.0
sg25
g52
sg26
g80
sg27
g42
sg28
g76
sg29
g53
sg30
F148.0
sg31
g43
sg32
g33
ssS'HICKERSON GARY J'
p149
(dp150
g3
F1320.0
sg4
g5
sg6
F98849.0
sg7
I00
sg8
F69223.0
sg10
S'gary.hickerson@enron.com'
p151
sg12
F40.0
sg13
g14
sg15
F0.030303030303030304
sg16
g17
sg18
F900.0
sg19
g20
sg21
F27.0
sg22
F1936.0
sg23
g24
sg25
F1700000.0
sg26
F441096.0
sg27
F1.0
sg28
F441096.0
sg29
F211788.0
sg30
F2081796.0
sg31
F0.037037037037037035
sg32
g33
ssS'CLINE KENNETH W'
p152
(dp153
g3
g36
sg4
g5
sg6
g49
sg7
I00
sg8
g9
sg10
g37
sg12
g38
sg13
g14
sg15
g39
sg16
F-472568.0
sg18
g40
sg19
g20
sg21
g41
sg22
g51
sg23
g24
sg25
g52
sg26
F189518.0
sg27
g42
sg28
F662086.0
sg29
g53
sg30
g54
sg31
g43
sg32
g33
ssS'LEWIS RICHARD'
p154
(dp155
g3
F952.0
sg4
g5
sg6
g49
sg7
I00
sg8
g9
sg10
S'richard.lewis@enron.com'
p156
sg12
F10.0
sg13
g14
sg15
F0.01050420168067227
sg16
g17
sg18
F739.0
sg19
g20
sg21
F26.0
sg22
g51
sg23
g24
sg25
g52
sg26
F850477.0
sg27
F0.0
sg28
g76
sg29
g53
sg30
g54
sg31
F0.0
sg32
F850477.0
ssS'HAYES ROBERT E'
p157
(dp158
g3
F504.0
sg4
F7961.0
sg6
g49
sg7
I00
sg8
g9
sg10
S'robert.hayes@enron.com'
p159
sg12
F16.0
sg13
g14
sg15
F0.031746031746031744
sg16
g17
sg18
F50.0
sg19
g20
sg21
F12.0
sg22
g51
sg23
g24
sg25
g52
sg26
F151418.0
sg27
F0.0
sg28
F151418.0
sg29
g53
sg30
F7961.0
sg31
F0.0
sg32
g33
ssS'KOPPER MICHAEL J'
p160
(dp161
g3
g36
sg4
g5
sg6
F118134.0
sg7
I01
sg8
F602671.0
sg10
S'michael.kopper@enron.com'
p162
sg12
g38
sg13
g14
sg15
g39
sg16
g17
sg18
g40
sg19
g20
sg21
g41
sg22
F907502.0
sg23
g24
sg25
F800000.0
sg26
F985032.0
sg27
g42
sg28
F985032.0
sg29
F224305.0
sg30
F2652612.0
sg31
g43
sg32
g33
ssS'LEFF DANIEL P'
p163
(dp164
g3
F2822.0
sg4
g5
sg6
g49
sg7
I00
sg8
F1387399.0
sg10
S'dan.leff@enron.com'
p165
sg12
F67.0
sg13
g14
sg15
F0.02374202693125443
sg16
g17
sg18
F2672.0
sg19
g20
sg21
F63.0
sg22
F3083.0
sg23
g24
sg25
F1000000.0
sg26
F360528.0
sg27
F14.0
sg28
F360528.0
sg29
F273746.0
sg30
F2664228.0
sg31
F0.2222222222222222
sg32
g33
ssS'LAVORATO JOHN J'
p166
(dp167
g3
F7259.0
sg4
g5
sg6
F49537.0
sg7
I00
sg8
F2035380.0
sg10
S'john.lavorato@enron.com'
p168
sg12
F528.0
sg13
g14
sg15
F0.07273729163796666
sg16
g17
sg18
F3962.0
sg19
g20
sg21
F2585.0
sg22
F1552.0
sg23
g24
sg25
F8000000.0
sg26
F5167144.0
sg27
F411.0
sg28
F1008149.0
sg29
F339288.0
sg30
F10425757.0
sg31
F0.15899419729206962
sg32
F4158995.0
ssS'BERBERIAN DAVID'
p169
(dp170
g3
g36
sg4
g5
sg6
F11892.0
sg7
I00
sg8
g9
sg10
S'david.berberian@enron.com'
p171
sg12
g38
sg13
g14
sg15
g39
sg16
g17
sg18
g40
sg19
g20
sg21
g41
sg22
g51
sg23
g24
sg25
g52
sg26
F2493616.0
sg27
g42
sg28
F869220.0
sg29
F216582.0
sg30
F228474.0
sg31
g43
sg32
F1624396.0
ssS'DETMERING TIMOTHY J'
p172
(dp173
g3
g36
sg4
F875307.0
sg6
F52255.0
sg7
I00
sg8
F415657.0
sg10
S'timothy.detmering@enron.com'
p174
sg12
g38
sg13
F-775241.0
sg15
g39
sg16
F-315068.0
sg18
g40
sg19
g20
sg21
g41
sg22
F1105.0
sg23
g24
sg25
F425000.0
sg26
F2027865.0
sg27
g42
sg28
F315068.0
sg29
F210500.0
sg30
F1204583.0
sg31
g43
sg32
F2027865.0
ssS'WAKEHAM JOHN'
p175
(dp176
g3
g36
sg4
g5
sg6
F103773.0
sg7
I00
sg8
g9
sg10
g37
sg12
g38
sg13
g14
sg15
g39
sg16
g17
sg18
g40
sg19
g20
sg21
g41
sg22
g51
sg23
F109298.0
sg25
g52
sg26
g80
sg27
g42
sg28
g76
sg29
g53
sg30
F213071.0
sg31
g43
sg32
g33
ssS'POWERS WILLIAM'
p177
(dp178
g3
F653.0
sg4
g5
sg6
g49
sg7
I00
sg8
g9
sg10
S'ken.powers@enron.com'
p179
sg12
F0.0
sg13
F-17500.0
sg15
F0.0
sg16
g17
sg18
F12.0
sg19
g20
sg21
F26.0
sg22
g51
sg23
F17500.0
sg25
g52
sg26
g80
sg27
F0.0
sg28
g76
sg29
g53
sg30
g54
sg31
F0.0
sg32
g33
ssS'GOLD JOSEPH'
p180
(dp181
g3
g36
sg4
g5
sg6
g49
sg7
I00
sg8
F304805.0
sg10
S'joe.gold@enron.com'
p182
sg12
g38
sg13
g14
sg15
g39
sg16
g17
sg18
g40
sg19
g20
sg21
g41
sg22
F819288.0
sg23
g24
sg25
F750000.0
sg26
F877611.0
sg27
g42
sg28
F441096.0
sg29
F272880.0
sg30
F2146973.0
sg31
g43
sg32
F436515.0
ssS'BANNANTINE JAMES M'
p183
(dp184
g3
F566.0
sg4
g5
sg6
F56301.0
sg7
I00
sg8
g9
sg10
S'james.bannantine@enron.com'
p185
sg12
F39.0
sg13
F-5104.0
sg15
F0.06890459363957598
sg16
F-560222.0
sg18
F465.0
sg19
g20
sg21
F29.0
sg22
F864523.0
sg23
g24
sg25
g52
sg26
F5243487.0
sg27
F0.0
sg28
F1757552.0
sg29
F477.0
sg30
F916197.0
sg31
F0.0
sg32
F4046157.0
ssS'DUNCAN JOHN H'
p186
(dp187
g3
g36
sg4
g5
sg6
g49
sg7
I00
sg8
g9
sg10
g37
sg12
g38
sg13
F-25000.0
sg15
g39
sg16
g17
sg18
g40
sg19
g20
sg21
g41
sg22
g51
sg23
F102492.0
sg25
g52
sg26
F371750.0
sg27
g42
sg28
g76
sg29
g53
sg30
F77492.0
sg31
g43
sg32
F371750.0
ssS'SHAPIRO RICHARD S'
p188
(dp189
g3
F15149.0
sg4
g5
sg6
F137767.0
sg7
I00
sg8
g9
sg10
S'richard.shapiro@enron.com'
p190
sg12
F74.0
sg13
g14
sg15
F0.0048848108786058485
sg16
g17
sg18
F4527.0
sg19
g20
sg21
F1215.0
sg22
F705.0
sg23
g24
sg25
F650000.0
sg26
F987001.0
sg27
F65.0
sg28
F379164.0
sg29
F269076.0
sg30
F1057548.0
sg31
F0.053497942386831275
sg32
F607837.0
ssS'SHERRIFF JOHN R'
p191
(dp192
g3
F3187.0
sg4
g5
sg6
g49
sg7
I00
sg8
F554422.0
sg10
S'john.sherriff@enron.com'
p193
sg12
F28.0
sg13
g14
sg15
F0.008785691873235017
sg16
g17
sg18
F2103.0
sg19
g20
sg21
F92.0
sg22
F1852186.0
sg23
g24
sg25
F1500000.0
sg26
F3128982.0
sg27
F23.0
sg28
F1293424.0
sg29
F428780.0
sg30
F4335388.0
sg31
F0.25
sg32
F1835558.0
ssS'SHELBY REX'
p194
(dp195
g3
F225.0
sg4
g5
sg6
F22884.0
sg7
I01
sg8
g9
sg10
S'rex.shelby@enron.com'
p196
sg12
F13.0
sg13
F-4167.0
sg15
F0.057777777777777775
sg16
g17
sg18
F91.0
sg19
g20
sg21
F39.0
sg22
F1573324.0
sg23
g24
sg25
F200000.0
sg26
F2493616.0
sg27
F14.0
sg28
F869220.0
sg29
F211844.0
sg30
F2003885.0
sg31
F0.358974358974359
sg32
F1624396.0
ssS'LEMAISTRE CHARLES'
p197
(dp198
g3
g36
sg4
g5
sg6
g49
sg7
I00
sg8
g9
sg10
g37
sg12
g38
sg13
F-25000.0
sg15
g39
sg16
g17
sg18
g40
sg19
g20
sg21
g41
sg22
g51
sg23
F112492.0
sg25
g52
sg26
F412878.0
sg27
g42
sg28
g76
sg29
g53
sg30
F87492.0
sg31
g43
sg32
F412878.0
ssS'DEFFNER JOSEPH M'
p199
(dp200
g3
F714.0
sg4
g5
sg6
F41626.0
sg7
I00
sg8
F335349.0
sg10
S'joseph.deffner@enron.com'
p201
sg12
F115.0
sg13
g14
sg15
F0.16106442577030813
sg16
g17
sg18
F552.0
sg19
g20
sg21
F74.0
sg22
F25553.0
sg23
g24
sg25
F600000.0
sg26
F159211.0
sg27
F4.0
sg28
F141833.0
sg29
F206121.0
sg30
F1208649.0
sg31
F0.05405405405405406
sg32
F17378.0
ssS'KISHKILL JOSEPH G'
p202
(dp203
g3
g36
sg4
g5
sg6
F116335.0
sg7
I00
sg8
g9
sg10
S'joe.kishkill@enron.com'
p204
sg12
g38
sg13
F-51042.0
sg15
g39
sg16
g17
sg18
g40
sg19
g20
sg21
g41
sg22
F465357.0
sg23
g24
sg25
g52
sg26
F1034346.0
sg27
g42
sg28
F1034346.0
sg29
F174246.0
sg30
F704896.0
sg31
g43
sg32
g33
ssS'WHALLEY LAWRENCE G'
p205
(dp206
g3
F6019.0
sg4
g5
sg6
F57838.0
sg7
I00
sg8
F808346.0
sg10
S'greg.whalley@enron.com'
p207
sg12
F186.0
sg13
g14
sg15
F0.03090214321315833
sg16
g17
sg18
F3920.0
sg19
g20
sg21
F556.0
sg22
F301026.0
sg23
g24
sg25
F3000000.0
sg26
F6079137.0
sg27
F24.0
sg28
F2796177.0
sg29
F510364.0
sg30
F4677574.0
sg31
F0.04316546762589928
sg32
F3282960.0
ssS'MCCARTY DANNY J'
p208
(dp209
g3
F1433.0
sg4
g5
sg6
g49
sg7
I00
sg8
g9
sg10
S'danny.mccarty@enron.com'
p210
sg12
F25.0
sg13
g14
sg15
F0.017445917655268667
sg16
g17
sg18
F508.0
sg19
g20
sg21
F215.0
sg22
g51
sg23
g24
sg25
g52
sg26
F758931.0
sg27
F2.0
sg28
F94556.0
sg29
g53
sg30
g54
sg31
F0.009302325581395349
sg32
F664375.0
ssS'MCCONNELL MICHAEL S'
p211
(dp212
g3
F3329.0
sg4
g5
sg6
F81364.0
sg7
I00
sg8
F554422.0
sg10
S'mike.mcconnell@enron.com'
p213
sg12
F92.0
sg13
g14
sg15
F0.02763592670471613
sg16
g17
sg18
F2189.0
sg19
g20
sg21
F2742.0
sg22
F540.0
sg23
g24
sg25
F1100000.0
sg26
F3101279.0
sg27
F194.0
sg28
F1478269.0
sg29
F365038.0
sg30
F2101364.0
sg31
F0.07075127644055434
sg32
F1623010.0
ssS'DELAINEY DAVID W'
p214
(dp215
g3
F3093.0
sg4
g5
sg6
F86174.0
sg7
I01
sg8
F1294981.0
sg10
S'david.delainey@enron.com'
p216
sg12
F66.0
sg13
g14
sg15
F0.02133850630455868
sg16
g17
sg18
F2097.0
sg19
g20
sg21
F3069.0
sg22
F1661.0
sg23
g24
sg25
F3000000.0
sg26
F3614261.0
sg27
F609.0
sg28
F1323148.0
sg29
F365163.0
sg30
F4747979.0
sg31
F0.198435972629521
sg32
F2291113.0
ssS'SULLIVAN-SHAKLOVITZ COLLEEN'
p217
(dp218
g3
g36
sg4
F181993.0
sg6
g49
sg7
I00
sg8
F554422.0
sg10
g37
sg12
g38
sg13
g14
sg15
g39
sg16
g17
sg18
g40
sg19
g20
sg21
g41
sg22
F162.0
sg23
g24
sg25
F100000.0
sg26
F1362375.0
sg27
g42
sg28
g76
sg29
F162779.0
sg30
F999356.0
sg31
g43
sg32
F1362375.0
ssS'WROBEL BRUCE'
p219
(dp220
g3
g36
sg4
g5
sg6
g49
sg7
I00
sg8
g9
sg10
g37
sg12
g38
sg13
g14
sg15
g39
sg16
g17
sg18
g40
sg19
g20
sg21
g41
sg22
g51
sg23
g24
sg25
g52
sg26
F139130.0
sg27
g42
sg28
g76
sg29
g53
sg30
g54
sg31
g43
sg32
F139130.0
ssS'LINDHOLM TOD A'
p221
(dp222
g3
g36
sg4
F204075.0
sg6
F57727.0
sg7
I00
sg8
F175000.0
sg10
S'tod.lindholm@enron.com'
p223
sg12
g38
sg13
g14
sg15
g39
sg16
g17
sg18
g40
sg19
g20
sg21
g41
sg22
F2630.0
sg23
g24
sg25
F200000.0
sg26
F3064208.0
sg27
g42
sg28
F514847.0
sg29
F236457.0
sg30
F875889.0
sg31
g43
sg32
F2549361.0
ssS'MEYER JEROME J'
p224
(dp225
g3
g36
sg4
g5
sg6
F2151.0
sg7
I00
sg8
g9
sg10
g37
sg12
g38
sg13
F-38346.0
sg15
g39
sg16
g17
sg18
g40
sg19
g20
sg21
g41
sg22
g51
sg23
F38346.0
sg25
g52
sg26
g80
sg27
g42
sg28
g76
sg29
g53
sg30
F2151.0
sg31
g43
sg32
g33
ssS'LAY KENNETH L'
p226
(dp227
g3
F4273.0
sg4
F202911.0
sg6
F99832.0
sg7
I01
sg8
F3600000.0
sg10
S'kenneth.lay@enron.com'
p228
sg12
F123.0
sg13
F-300000.0
sg15
F0.028785396676807865
sg16
g17
sg18
F2411.0
sg19
F81525000.0
sg21
F36.0
sg22
F10359729.0
sg23
g24
sg25
F7000000.0
sg26
F49110078.0
sg27
F16.0
sg28
F14761694.0
sg29
F1072321.0
sg30
F103559793.0
sg31
F0.4444444444444444
sg32
F34348384.0
ssS'BUTTS ROBERT H'
p229
(dp230
g3
g36
sg4
g5
sg6
F9410.0
sg7
I00
sg8
F175000.0
sg10
S'bob.butts@enron.com'
p231
sg12
g38
sg13
F-75000.0
sg15
g39
sg16
g17
sg18
g40
sg19
g20
sg21
g41
sg22
F150656.0
sg23
g24
sg25
F750000.0
sg26
F417619.0
sg27
g42
sg28
F417619.0
sg29
F261516.0
sg30
F1271582.0
sg31
g43
sg32
g33
ssS'OLSON CINDY K'
p232
(dp233
g3
F1184.0
sg4
F77716.0
sg6
F63791.0
sg7
I00
sg8
F100000.0
sg10
S'cindy.olson@enron.com'
p234
sg12
F20.0
sg13
g14
sg15
F0.016891891891891893
sg16
g17
sg18
F856.0
sg19
g20
sg21
F52.0
sg22
F972.0
sg23
g24
sg25
F750000.0
sg26
F2606763.0
sg27
F15.0
sg28
F969729.0
sg29
F329078.0
sg30
F1321557.0
sg31
F0.28846153846153844
sg32
F1637034.0
ssS'MCDONALD REBECCA'
p235
(dp236
g3
F894.0
sg4
g5
sg6
g49
sg7
I00
sg8
g9
sg10
S'rebecca.mcdonald@enron.com'
p237
sg12
F54.0
sg13
g14
sg15
F0.06040268456375839
sg16
g17
sg18
F720.0
sg19
g20
sg21
F13.0
sg22
g51
sg23
g24
sg25
g52
sg26
F1691366.0
sg27
F1.0
sg28
F934065.0
sg29
g53
sg30
g54
sg31
F0.07692307692307693
sg32
F757301.0
ssS'CUMBERLAND MICHAEL S'
p238
(dp239
g3
g36
sg4
g5
sg6
F22344.0
sg7
I00
sg8
F275000.0
sg10
g37
sg12
g38
sg13
g14
sg15
g39
sg16
g17
sg18
g40
sg19
g20
sg21
g41
sg22
F713.0
sg23
g24
sg25
F325000.0
sg26
F207940.0
sg27
g42
sg28
F207940.0
sg29
F184899.0
sg30
F807956.0
sg31
g43
sg32
g33
ssS'GAHN ROBERT S'
p240
(dp241
g3
g36
sg4
F73122.0
sg6
F50080.0
sg7
I00
sg8
g9
sg10
g37
sg12
g38
sg13
F-1042.0
sg15
g39
sg16
g17
sg18
g40
sg19
g20
sg21
g41
sg22
F76547.0
sg23
g24
sg25
F509870.0
sg26
F318607.0
sg27
g42
sg28
F235370.0
sg29
F192008.0
sg30
F900585.0
sg31
g43
sg32
F83237.0
ssS'MCCLELLAN GEORGE'
p242
(dp243
g3
F1744.0
sg4
g5
sg6
F228763.0
sg7
I00
sg8
g9
sg10
S'george.mcclellan@enron.com'
p244
sg12
F52.0
sg13
F-125000.0
sg15
F0.02981651376146789
sg16
g17
sg18
F1469.0
sg19
g20
sg21
F49.0
sg22
F51587.0
sg23
g24
sg25
F900000.0
sg26
F947861.0
sg27
F0.0
sg28
F441096.0
sg29
F263413.0
sg30
F1318763.0
sg31
F0.0
sg32
F506765.0
ssS'HERMANN ROBERT J'
p245
(dp246
g3
g36
sg4
g5
sg6
F48357.0
sg7
I00
sg8
F150000.0
sg10
S'robert.hermann@enron.com'
p247
sg12
g38
sg13
F-280000.0
sg15
g39
sg16
g17
sg18
g40
sg19
g20
sg21
g41
sg22
F416441.0
sg23
g24
sg25
F700000.0
sg26
F668132.0
sg27
g42
sg28
F480632.0
sg29
F262663.0
sg30
F1297461.0
sg31
g43
sg32
F187500.0
ssS'SCRIMSHAW MATTHEW'
p248
(dp249
g3
g36
sg4
g5
sg6
g49
sg7
I00
sg8
g9
sg10
S'matthew.scrimshaw@enron.com'
p250
sg12
g38
sg13
g14
sg15
g39
sg16
g17
sg18
g40
sg19
g20
sg21
g41
sg22
g51
sg23
g24
sg25
g52
sg26
F759557.0
sg27
g42
sg28
g76
sg29
g53
sg30
g54
sg31
g43
sg32
F759557.0
ssS'GATHMANN WILLIAM D'
p251
(dp252
g3
g36
sg4
g5
sg6
g49
sg7
I00
sg8
g9
sg10
g37
sg12
g38
sg13
g14
sg15
g39
sg16
F-72419.0
sg18
g40
sg19
g20
sg21
g41
sg22
g51
sg23
g24
sg25
g52
sg26
F1945360.0
sg27
g42
sg28
F264013.0
sg29
g53
sg30
g54
sg31
g43
sg32
F1753766.0
ssS'HAEDICKE MARK E'
p253
(dp254
g3
F4009.0
sg4
F2157527.0
sg6
F76169.0
sg7
I00
sg8
F983346.0
sg10
S'mark.haedicke@enron.com'
p255
sg12
F180.0
sg13
F-934484.0
sg15
F0.04489897730107259
sg16
F-329825.0
sg18
F1847.0
sg19
g20
sg21
F1941.0
sg22
F52382.0
sg23
g24
sg25
F1150000.0
sg26
F803094.0
sg27
F61.0
sg28
F524169.0
sg29
F374125.0
sg30
F3859065.0
sg31
F0.03142709943328181
sg32
F608750.0
ssS'BOWEN JR RAYMOND M'
p256
(dp257
g3
F1858.0
sg4
g5
sg6
F65907.0
sg7
I01
sg8
F974293.0
sg10
S'raymond.bowen@enron.com'
p258
sg12
F140.0
sg13
F-833.0
sg15
F0.07534983853606028
sg16
g17
sg18
F1593.0
sg19
g20
sg21
F27.0
sg22
F1621.0
sg23
g24
sg25
F1350000.0
sg26
F252055.0
sg27
F15.0
sg28
F252055.0
sg29
F278601.0
sg30
F2669589.0
sg31
F0.5555555555555556
sg32
g33
ssS'GILLIS JOHN'
p259
(dp260
g3
g36
sg4
g5
sg6
g49
sg7
I00
sg8
g9
sg10
g37
sg12
g38
sg13
g14
sg15
g39
sg16
g17
sg18
g40
sg19
g20
sg21
g41
sg22
g51
sg23
g24
sg25
g52
sg26
F85641.0
sg27
g42
sg28
F75838.0
sg29
g53
sg30
g54
sg31
g43
sg32
F9803.0
ssS'FITZGERALD JAY L'
p261
(dp262
g3
F936.0
sg4
g5
sg6
F23870.0
sg7
I00
sg8
F556416.0
sg10
S'jay.fitzgerald@enron.com'
p263
sg12
F1.0
sg13
g14
sg15
F0.0010683760683760685
sg16
g17
sg18
F723.0
sg19
g20
sg21
F16.0
sg22
F285414.0
sg23
g24
sg25
F350000.0
sg26
F1621236.0
sg27
F8.0
sg28
F956775.0
sg29
F199157.0
sg30
F1414857.0
sg31
F0.5
sg32
F664461.0
ssS'MORAN MICHAEL P'
p264
(dp265
g3
F672.0
sg4
g5
sg6
g49
sg7
I00
sg8
g9
sg10
S'michael.moran@enron.com'
p266
sg12
F0.0
sg13
g14
sg15
F0.0
sg16
g17
sg18
F127.0
sg19
g20
sg21
F19.0
sg22
g51
sg23
g24
sg25
g52
sg26
F221141.0
sg27
F0.0
sg28
F161602.0
sg29
g53
sg30
g54
sg31
F0.0
sg32
F59539.0
ssS'REDMOND BRIAN L'
p267
(dp268
g3
F1671.0
sg4
g5
sg6
F14689.0
sg7
I00
sg8
g9
sg10
S'brian.redmond@enron.com'
p269
sg12
F204.0
sg13
g14
sg15
F0.12208258527827648
sg16
g17
sg18
F1063.0
sg19
g20
sg21
F221.0
sg22
g51
sg23
g24
sg25
g52
sg26
F7890324.0
sg27
F49.0
sg28
F381285.0
sg29
F96840.0
sg30
F111529.0
sg31
F0.22171945701357465
sg32
F7509039.0
ssS'BAZELIDES PHILIP J'
p270
(dp271
g3
g36
sg4
F684694.0
sg6
g49
sg7
I00
sg8
F93750.0
sg10
g37
sg12
g38
sg13
g14
sg15
g39
sg16
g17
sg18
g40
sg19
g20
sg21
g41
sg22
F874.0
sg23
g24
sg25
g52
sg26
F1599641.0
sg27
g42
sg28
g76
sg29
F80818.0
sg30
F860136.0
sg31
g43
sg32
F1599641.0
ssS'BELDEN TIMOTHY N'
p272
(dp273
g3
F7991.0
sg4
F2144013.0
sg6
F17355.0
sg7
I01
sg8
g9
sg10
S'tim.belden@enron.com'
p274
sg12
F228.0
sg13
F-2334434.0
sg15
F0.028532098610937303
sg16
g17
sg18
F5521.0
sg19
g20
sg21
F484.0
sg22
F210698.0
sg23
g24
sg25
F5249999.0
sg26
F1110705.0
sg27
F108.0
sg28
F157569.0
sg29
F213999.0
sg30
F5501630.0
sg31
F0.2231404958677686
sg32
F953136.0
ssS'DURAN WILLIAM D'
p275
(dp276
g3
F904.0
sg4
g5
sg6
F25785.0
sg7
I00
sg8
F1105218.0
sg10
S'w.duran@enron.com'
p277
sg12
F106.0
sg13
g14
sg15
F0.1172566371681416
sg16
g17
sg18
F599.0
sg19
g20
sg21
F12.0
sg22
F1568.0
sg23
g24
sg25
F750000.0
sg26
F1640910.0
sg27
F3.0
sg28
F189041.0
sg29
F210692.0
sg30
F2093263.0
sg31
F0.25
sg32
F1451869.0
ssS'THORN TERENCE H'
p278
(dp279
g3
F266.0
sg4
F16586.0
sg6
F46145.0
sg7
I00
sg8
F200000.0
sg10
S'terence.thorn@enron.com'
p280
sg12
F0.0
sg13
g14
sg15
F0.0
sg16
g17
sg18
F73.0
sg19
g20
sg21
F41.0
sg22
F426629.0
sg23
g24
sg25
g52
sg26
F4817796.0
sg27
F0.0
sg28
F365320.0
sg29
F222093.0
sg30
F911453.0
sg31
F0.0
sg32
F4452476.0
ssS'FASTOW ANDREW S'
p281
(dp282
g3
g36
sg4
g5
sg6
F55921.0
sg7
I01
sg8
F1736055.0
sg10
S'andrew.fastow@enron.com'
p283
sg12
g38
sg13
F-1386055.0
sg15
g39
sg16
g17
sg18
g40
sg19
g20
sg21
g41
sg22
F277464.0
sg23
g24
sg25
F1300000.0
sg26
F1794412.0
sg27
g42
sg28
F1794412.0
sg29
F440698.0
sg30
F2424083.0
sg31
g43
sg32
g33
ssS'FOY JOE'
p284
(dp285
g3
F57.0
sg4
F181755.0
sg6
g49
sg7
I00
sg8
g9
sg10
S'tracy.foy@enron.com'
p286
sg12
F0.0
sg13
g14
sg15
F0.0
sg16
g17
sg18
F2.0
sg19
g20
sg21
F13.0
sg22
g51
sg23
g24
sg25
g52
sg26
F343434.0
sg27
F0.0
sg28
g76
sg29
g53
sg30
F181755.0
sg31
F0.0
sg32
F343434.0
ssS'CALGER CHRISTOPHER F'
p287
(dp288
g3
F2598.0
sg4
g5
sg6
F35818.0
sg7
I01
sg8
F375304.0
sg10
S'christopher.calger@enron.com'
p289
sg12
F199.0
sg13
F-262500.0
sg15
F0.07659738260200154
sg16
g17
sg18
F2188.0
sg19
g20
sg21
F144.0
sg22
F486.0
sg23
g24
sg25
F1250000.0
sg26
F126027.0
sg27
F25.0
sg28
F126027.0
sg29
F240189.0
sg30
F1639297.0
sg31
F0.1736111111111111
sg32
g33
ssS'RICE KENNETH D'
p290
(dp291
g3
F905.0
sg4
g5
sg6
F46950.0
sg7
I01
sg8
F1617011.0
sg10
S'ken.rice@enron.com'
p292
sg12
F42.0
sg13
F-3504386.0
sg15
F0.04640883977900553
sg16
g17
sg18
F864.0
sg19
g20
sg21
F18.0
sg22
F174839.0
sg23
g24
sg25
F1750000.0
sg26
F22542539.0
sg27
F4.0
sg28
F2748364.0
sg29
F420636.0
sg30
F505050.0
sg31
F0.2222222222222222
sg32
F19794175.0
ssS'KAMINSKI WINCENTY J'
p293
(dp294
g3
F4607.0
sg4
g5
sg6
F83585.0
sg7
I00
sg8
F323466.0
sg10
S'vince.kaminski@enron.com'
p295
sg12
F41.0
sg13
g14
sg15
F0.008899500759713479
sg16
g17
sg18
F583.0
sg19
g20
sg21
F14368.0
sg22
F4669.0
sg23
g24
sg25
F400000.0
sg26
F976037.0
sg27
F171.0
sg28
F126027.0
sg29
F275101.0
sg30
F1086821.0
sg31
F0.011901447661469933
sg32
F850010.0
ssS'LOCKHART EUGENE E'
p296
(dp297
g3
g36
sg4
g5
sg6
g49
sg7
I00
sg8
g9
sg10
g37
sg12
g38
sg13
g14
sg15
g39
sg16
g17
sg18
g40
sg19
g20
sg21
g41
sg22
g51
sg23
g24
sg25
g52
sg26
g80
sg27
g42
sg28
g76
sg29
g53
sg30
g54
sg31
g43
sg32
g33
ssS'COX DAVID'
p298
(dp299
g3
F102.0
sg4
g5
sg6
F27861.0
sg7
I00
sg8
g9
sg10
S'chip.cox@enron.com'
p300
sg12
F0.0
sg13
F-41250.0
sg15
F0.0
sg16
g17
sg18
F71.0
sg19
g20
sg21
F33.0
sg22
F494.0
sg23
g24
sg25
F800000.0
sg26
F495633.0
sg27
F4.0
sg28
F378082.0
sg29
F314288.0
sg30
F1101393.0
sg31
F0.12121212121212122
sg32
F117551.0
ssS'OVERDYKE JR JERE C'
p301
(dp302
g3
g36
sg4
g5
sg6
F18834.0
sg7
I00
sg8
F135836.0
sg10
S'jere.overdyke@enron.com'
p303
sg12
g38
sg13
g14
sg15
g39
sg16
g17
sg18
g40
sg19
g20
sg21
g41
sg22
F176.0
sg23
g24
sg25
g52
sg26
F7307594.0
sg27
g42
sg28
F2041016.0
sg29
F94941.0
sg30
F249787.0
sg31
g43
sg32
F5266578.0
ssS'PEREIRA PAULO V. FERRAZ'
p304
(dp305
g3
g36
sg4
g5
sg6
F27942.0
sg7
I00
sg8
g9
sg10
g37
sg12
g38
sg13
F-101250.0
sg15
g39
sg16
g17
sg18
g40
sg19
g20
sg21
g41
sg22
g51
sg23
F101250.0
sg25
g52
sg26
g80
sg27
g42
sg28
g76
sg29
g53
sg30
F27942.0
sg31
g43
sg32
g33
ssS'STABLER FRANK'
p306
(dp307
g3
g36
sg4
g5
sg6
F16514.0
sg7
I00
sg8
g9
sg10
S'frank.stabler@enron.com'
p308
sg12
g38
sg13
g14
sg15
g39
sg16
g17
sg18
g40
sg19
g20
sg21
g41
sg22
F356071.0
sg23
g24
sg25
F500000.0
sg26
F511734.0
sg27
g42
sg28
F511734.0
sg29
F239502.0
sg30
F1112087.0
sg31
g43
sg32
g33
ssS'SKILLING JEFFREY K'
p309
(dp310
g3
F3627.0
sg4
g5
sg6
F29336.0
sg7
I01
sg8
F1920000.0
sg10
S'jeff.skilling@enron.com'
p311
sg12
F88.0
sg13
g14
sg15
F0.0242624758753791
sg16
g17
sg18
F2042.0
sg19
g20
sg21
F108.0
sg22
F22122.0
sg23
g24
sg25
F5600000.0
sg26
F26093672.0
sg27
F30.0
sg28
F6843672.0
sg29
F1111258.0
sg30
F8682716.0
sg31
F0.2777777777777778
sg32
F19250000.0
ssS'BLAKE JR. NORMAN P'
p312
(dp313
g3
g36
sg4
g5
sg6
F1279.0
sg7
I00
sg8
g9
sg10
g37
sg12
g38
sg13
F-113784.0
sg15
g39
sg16
g17
sg18
g40
sg19
g20
sg21
g41
sg22
g51
sg23
F113784.0
sg25
g52
sg26
g80
sg27
g42
sg28
g76
sg29
g53
sg30
F1279.0
sg31
g43
sg32
g33
ssS'SHERRICK JEFFREY B'
p314
(dp315
g3
F613.0
sg4
g5
sg6
g49
sg7
I00
sg8
g9
sg10
S'jeffrey.sherrick@enron.com'
p316
sg12
F39.0
sg13
g14
sg15
F0.0636215334420881
sg16
g17
sg18
F583.0
sg19
g20
sg21
F25.0
sg22
g51
sg23
g24
sg25
g52
sg26
F1832468.0
sg27
F18.0
sg28
F405999.0
sg29
g53
sg30
g54
sg31
F0.72
sg32
F1426469.0
ssS'PRENTICE JAMES'
p317
(dp318
g3
g36
sg4
F564348.0
sg6
g49
sg7
I00
sg8
g9
sg10
S'james.prentice@enron.com'
p319
sg12
g38
sg13
g14
sg15
g39
sg16
g17
sg18
g40
sg19
g20
sg21
g41
sg22
g51
sg23
g24
sg25
g52
sg26
F1095040.0
sg27
g42
sg28
F208809.0
sg29
g53
sg30
F564348.0
sg31
g43
sg32
F886231.0
ssS'GRAY RODNEY'
p320
(dp321
g3
g36
sg4
F93585.0
sg6
g49
sg7
I00
sg8
F365625.0
sg10
g37
sg12
g38
sg13
g14
sg15
g39
sg16
g17
sg18
g40
sg19
g20
sg21
g41
sg22
F680833.0
sg23
g24
sg25
g52
sg26
g80
sg27
g42
sg28
g76
sg29
F6615.0
sg30
F1146658.0
sg31
g43
sg32
g33
ssS'PICKERING MARK R'
p322
(dp323
g3
F898.0
sg4
g5
sg6
F31653.0
sg7
I00
sg8
g9
sg10
S'mark.pickering@enron.com'
p324
sg12
F7.0
sg13
g14
sg15
F0.0077951002227171495
sg16
g17
sg18
F728.0
sg19
F400000.0
sg21
F67.0
sg22
g51
sg23
g24
sg25
F300000.0
sg26
F28798.0
sg27
F0.0
sg28
g76
sg29
F655037.0
sg30
F1386690.0
sg31
F0.0
sg32
F28798.0
ssS'THE TRAVEL AGENCY IN THE PARK'
p325
(dp326
g3
g36
sg4
g5
sg6
g49
sg7
I00
sg8
g9
sg10
g37
sg12
g38
sg13
g14
sg15
g39
sg16
g17
sg18
g40
sg19
g20
sg21
g41
sg22
F362096.0
sg23
g24
sg25
g52
sg26
g80
sg27
g42
sg28
g76
sg29
g53
sg30
F362096.0
sg31
g43
sg32
g33
ssS'NOLES JAMES L'
p327
(dp328
g3
g36
sg4
F774401.0
sg6
g49
sg7
I00
sg8
g9
sg10
g37
sg12
g38
sg13
g14
sg15
g39
sg16
F-94556.0
sg18
g40
sg19
g20
sg21
g41
sg22
g51
sg23
g24
sg25
g52
sg26
F368705.0
sg27
g42
sg28
F463261.0
sg29
g53
sg30
F774401.0
sg31
g43
sg32
g33
ssS'KEAN STEVEN J'
p329
(dp330
g3
F12754.0
sg4
g5
sg6
F41953.0
sg7
I00
sg8
F300000.0
sg10
S'steven.kean@enron.com'
p331
sg12
F140.0
sg13
g14
sg15
F0.010976948408342482
sg16
g17
sg18
F3639.0
sg19
g20
sg21
F6759.0
sg22
F1231.0
sg23
g24
sg25
F1000000.0
sg26
F6153642.0
sg27
F387.0
sg28
F4131594.0
sg29
F404338.0
sg30
F1747522.0
sg31
F0.05725699067909454
sg32
F2022048.0
ssS'FOWLER PEGGY'
p332
(dp333
g3
F517.0
sg4
g5
sg6
g49
sg7
I00
sg8
g9
sg10
S'kulvinder.fowler@enron.com'
p334
sg12
F0.0
sg13
g14
sg15
F0.0
sg16
g17
sg18
F10.0
sg19
g20
sg21
F36.0
sg22
g51
sg23
g24
sg25
g52
sg26
F1884748.0
sg27
F0.0
sg28
F560170.0
sg29
g53
sg30
g54
sg31
F0.0
sg32
F1324578.0
ssS'WASAFF GEORGE'
p335
(dp336
g3
F400.0
sg4
F831299.0
sg6
g49
sg7
I00
sg8
F200000.0
sg10
S'george.wasaff@enron.com'
p337
sg12
F22.0
sg13
F-583325.0
sg15
F0.055
sg16
g17
sg18
F337.0
sg19
g20
sg21
F30.0
sg22
F1425.0
sg23
g24
sg25
F325000.0
sg26
F2056427.0
sg27
F7.0
sg28
F388167.0
sg29
F259996.0
sg30
F1034395.0
sg31
F0.23333333333333334
sg32
F1668260.0
ssS'WHITE JR THOMAS E'
p338
(dp339
g3
g36
sg4
g5
sg6
F81353.0
sg7
I00
sg8
g9
sg10
S'thomas.white@enron.com'
p340
sg12
g38
sg13
g14
sg15
g39
sg16
g17
sg18
g40
sg19
g20
sg21
g41
sg22
F1085463.0
sg23
g24
sg25
F450000.0
sg26
F15144123.0
sg27
g42
sg28
F13847074.0
sg29
F317543.0
sg30
F1934359.0
sg31
g43
sg32
F1297049.0
ssS'CHRISTODOULOU DIOMEDES'
p341
(dp342
g3
g36
sg4
g5
sg6
g49
sg7
I00
sg8
g9
sg10
S'diomedes.christodoulou@enron.com'
p343
sg12
g38
sg13
g14
sg15
g39
sg16
g17
sg18
g40
sg19
g20
sg21
g41
sg22
g51
sg23
g24
sg25
g52
sg26
F6077885.0
sg27
g42
sg28
F950730.0
sg29
g53
sg30
g54
sg31
g43
sg32
F5127155.0
ssS'ALLEN PHILLIP K'
p344
(dp345
g3
F2902.0
sg4
F2869717.0
sg6
F13868.0
sg7
I00
sg8
F304805.0
sg10
S'phillip.allen@enron.com'
p346
sg12
F47.0
sg13
F-3081055.0
sg15
F0.016195727084769126
sg16
F-126027.0
sg18
F1407.0
sg19
g20
sg21
F2195.0
sg22
F152.0
sg23
g24
sg25
F4175000.0
sg26
F1729541.0
sg27
F65.0
sg28
F126027.0
sg29
F201955.0
sg30
F4484442.0
sg31
F0.029612756264236904
sg32
F1729541.0
ssS'SHARP VICTORIA T'
p347
(dp348
g3
F3136.0
sg4
F187469.0
sg6
F116337.0
sg7
I00
sg8
F422158.0
sg10
S'vicki.sharp@enron.com'
p349
sg12
F24.0
sg13
g14
sg15
F0.007653061224489796
sg16
g17
sg18
F2477.0
sg19
g20
sg21
F136.0
sg22
F2401.0
sg23
g24
sg25
F600000.0
sg26
F494136.0
sg27
F6.0
sg28
F213063.0
sg29
F248146.0
sg30
F1576511.0
sg31
F0.04411764705882353
sg32
F281073.0
ssS'JAEDICKE ROBERT'
p350
(dp351
g3
g36
sg4
g5
sg6
g49
sg7
I00
sg8
g9
sg10
g37
sg12
g38
sg13
F-25000.0
sg15
g39
sg16
F-44093.0
sg18
g40
sg19
g20
sg21
g41
sg22
g51
sg23
F108750.0
sg25
g52
sg26
F431750.0
sg27
g42
sg28
F44093.0
sg29
g53
sg30
F83750.0
sg31
g43
sg32
F431750.0
ssS'WINOKUR JR. HERBERT S'
p352
(dp353
g3
g36
sg4
g5
sg6
F1413.0
sg7
I00
sg8
g9
sg10
g37
sg12
g38
sg13
F-25000.0
sg15
g39
sg16
g17
sg18
g40
sg19
g20
sg21
g41
sg22
g51
sg23
F108579.0
sg25
g52
sg26
g80
sg27
g42
sg28
g76
sg29
g53
sg30
F84992.0
sg31
g43
sg32
g33
ssS'BROWN MICHAEL'
p354
(dp355
g3
F1486.0
sg4
g5
sg6
F49288.0
sg7
I00
sg8
g9
sg10
S'michael.brown@enron.com'
p356
sg12
F13.0
sg13
g14
sg15
F0.008748317631224764
sg16
g17
sg18
F761.0
sg19
g20
sg21
F41.0
sg22
g51
sg23
g24
sg25
g52
sg26
g80
sg27
F1.0
sg28
g76
sg29
g53
sg30
F49288.0
sg31
F0.024390243902439025
sg32
g33
ssS'BADUM JAMES P'
p357
(dp358
g3
g36
sg4
F178980.0
sg6
F3486.0
sg7
I00
sg8
g9
sg10
g37
sg12
g38
sg13
g14
sg15
g39
sg16
g17
sg18
g40
sg19
g20
sg21
g41
sg22
g51
sg23
g24
sg25
g52
sg26
F257817.0
sg27
g42
sg28
g76
sg29
g53
sg30
F182466.0
sg31
g43
sg32
F257817.0
ssS'HUGHES JAMES A'
p359
(dp360
g3
F719.0
sg4
g5
sg6
g49
sg7
I00
sg8
g9
sg10
S'james.hughes@enron.com'
p361
sg12
F35.0
sg13
g14
sg15
F0.048678720445062586
sg16
g17
sg18
F589.0
sg19
g20
sg21
F34.0
sg22
g51
sg23
g24
sg25
g52
sg26
F1118394.0
sg27
F5.0
sg28
F363428.0
sg29
g53
sg30
g54
sg31
F0.14705882352941177
sg32
F754966.0
ssS'REYNOLDS LAWRENCE'
p362
(dp363
g3
g36
sg4
F51365.0
sg6
F8409.0
sg7
I00
sg8
F156250.0
sg10
g37
sg12
g38
sg13
F-200000.0
sg15
g39
sg16
F-140264.0
sg18
g40
sg19
g20
sg21
g41
sg22
F202052.0
sg23
g24
sg25
F100000.0
sg26
F4221891.0
sg27
g42
sg28
F201483.0
sg29
F76399.0
sg30
F394475.0
sg31
g43
sg32
F4160672.0
ssS'DIMICHELE RICHARD G'
p364
(dp365
g3
g36
sg4
g5
sg6
F35812.0
sg7
I00
sg8
F694862.0
sg10
S'richard.dimichele@enron.com'
p366
sg12
g38
sg13
g14
sg15
g39
sg16
g17
sg18
g40
sg19
g20
sg21
g41
sg22
F374689.0
sg23
g24
sg25
F1000000.0
sg26
F8317782.0
sg27
g42
sg28
F126027.0
sg29
F262788.0
sg30
F2368151.0
sg31
g43
sg32
F8191755.0
ssS'BHATNAGAR SANJAY'
p367
(dp368
g3
F523.0
sg4
g5
sg6
g49
sg7
I00
sg8
g9
sg10
S'sanjay.bhatnagar@enron.com'
p369
sg12
F0.0
sg13
g14
sg15
F0.0
sg16
F15456290.0
sg18
F463.0
sg19
g20
sg21
F29.0
sg22
F137864.0
sg23
F137864.0
sg25
g52
sg26
g80
sg27
F1.0
sg28
F-2604490.0
sg29
g53
sg30
F15456290.0
sg31
F0.034482758620689655
sg32
F2604490.0
ssS'CARTER REBECCA C'
p370
(dp371
g3
F312.0
sg4
g5
sg6
g49
sg7
I00
sg8
F75000.0
sg10
S'rebecca.carter@enron.com'
p372
sg12
F29.0
sg13
F-159792.0
sg15
F0.09294871794871795
sg16
F-307301.0
sg18
F196.0
sg19
g20
sg21
F15.0
sg22
F540.0
sg23
g24
sg25
F300000.0
sg26
g80
sg27
F7.0
sg28
F307301.0
sg29
F261809.0
sg30
F477557.0
sg31
F0.4666666666666667
sg32
g33
ssS'BUCHANAN HAROLD G'
p373
(dp374
g3
F1088.0
sg4
g5
sg6
F600.0
sg7
I00
sg8
F304805.0
sg10
S'john.buchanan@enron.com'
p375
sg12
F0.0
sg13
g14
sg15
F0.0
sg16
g17
sg18
F23.0
sg19
g20
sg21
F125.0
sg22
F1215.0
sg23
g24
sg25
F500000.0
sg26
F1014505.0
sg27
F0.0
sg28
F189041.0
sg29
F248017.0
sg30
F1054637.0
sg31
F0.0
sg32
F825464.0
ssS'YEAP SOON'
p376
(dp377
g3
g36
sg4
g5
sg6
F55097.0
sg7
I00
sg8
g9
sg10
g37
sg12
g38
sg13
g14
sg15
g39
sg16
g17
sg18
g40
sg19
g20
sg21
g41
sg22
g51
sg23
g24
sg25
g52
sg26
F192758.0
sg27
g42
sg28
g76
sg29
g53
sg30
F55097.0
sg31
g43
sg32
F192758.0
ssS'MURRAY JULIA H'
p378
(dp379
g3
F2192.0
sg4
g5
sg6
F57580.0
sg7
I00
sg8
F125000.0
sg10
S'julia.murray@enron.com'
p380
sg12
F11.0
sg13
g14
sg15
F0.005018248175182482
sg16
g17
sg18
F395.0
sg19
g20
sg21
F45.0
sg22
F330.0
sg23
g24
sg25
F400000.0
sg26
F597461.0
sg27
F2.0
sg28
F196983.0
sg29
F229284.0
sg30
F812194.0
sg31
F0.044444444444444446
sg32
F400478.0
ssS'GARLAND C KEVIN'
p381
(dp382
g3
F209.0
sg4
g5
sg6
F48405.0
sg7
I00
sg8
F375304.0
sg10
S'kevin.garland@enron.com'
p383
sg12
F10.0
sg13
g14
sg15
F0.04784688995215311
sg16
g17
sg18
F178.0
sg19
g20
sg21
F44.0
sg22
F60814.0
sg23
g24
sg25
F850000.0
sg26
F896153.0
sg27
F27.0
sg28
F259907.0
sg29
F231946.0
sg30
F1566469.0
sg31
F0.6136363636363636
sg32
F636246.0
ssS'DODSON KEITH'
p384
(dp385
g3
F176.0
sg4
g5
sg6
F28164.0
sg7
I00
sg8
g9
sg10
S'keith.dodson@enron.com'
p386
sg12
F10.0
sg13
g14
sg15
F0.056818181818181816
sg16
g17
sg18
F114.0
sg19
g20
sg21
F14.0
sg22
F774.0
sg23
g24
sg25
F70000.0
sg26
g80
sg27
F3.0
sg28
g76
sg29
F221003.0
sg30
F319941.0
sg31
F0.21428571428571427
sg32
g33
ssS'YEAGER F SCOTT'
p387
(dp388
g3
g36
sg4
g5
sg6
F53947.0
sg7
I01
sg8
g9
sg10
S'scott.yeager@enron.com'
p389
sg12
g38
sg13
g14
sg15
g39
sg16
g17
sg18
g40
sg19
g20
sg21
g41
sg22
F147950.0
sg23
g24
sg25
g52
sg26
F11884758.0
sg27
g42
sg28
F3576206.0
sg29
F158403.0
sg30
F360300.0
sg31
g43
sg32
F8308552.0
ssS'HIRKO JOSEPH'
p390
(dp391
g3
g36
sg4
F10259.0
sg6
F77978.0
sg7
I01
sg8
g9
sg10
S'joe.hirko@enron.com'
p392
sg12
g38
sg13
g14
sg15
g39
sg16
g17
sg18
g40
sg19
g20
sg21
g41
sg22
F2856.0
sg23
g24
sg25
g52
sg26
F30766064.0
sg27
g42
sg28
g76
sg29
g53
sg30
F91093.0
sg31
g43
sg32
F30766064.0
ssS'DIETRICH JANET R'
p393
(dp394
g3
F2572.0
sg4
g5
sg6
F3475.0
sg7
I00
sg8
F556416.0
sg10
S'janet.dietrich@enron.com'
p395
sg12
F305.0
sg13
g14
sg15
F0.11858475894245724
sg16
g17
sg18
F1902.0
sg19
g20
sg21
F63.0
sg22
F473.0
sg23
g24
sg25
F600000.0
sg26
F1865087.0
sg27
F14.0
sg28
F315068.0
sg29
F250100.0
sg30
F1410464.0
sg31
F0.2222222222222222
sg32
F1550019.0
ssS'DERRICK JR. JAMES V'
p396
(dp397
g3
F2181.0
sg4
g5
sg6
F51124.0
sg7
I00
sg8
F484000.0
sg10
S'james.derrick@enron.com'
p398
sg12
F64.0
sg13
F-1284000.0
sg15
F0.029344337459880788
sg16
F-1787380.0
sg18
F1401.0
sg19
g20
sg21
F909.0
sg22
F7482.0
sg23
g24
sg25
F800000.0
sg26
F8831913.0
sg27
F20.0
sg28
F1787380.0
sg29
F492375.0
sg30
F550981.0
sg31
F0.022002200220022004
sg32
F8831913.0
ssS'FREVERT MARK A'
p399
(dp400
g3
F3275.0
sg4
F6426990.0
sg6
F86987.0
sg7
I00
sg8
F1617011.0
sg10
S'mark.frevert@enron.com'
p401
sg12
F242.0
sg13
F-3367011.0
sg15
F0.07389312977099237
sg16
g17
sg18
F2979.0
sg19
F2000000.0
sg21
F21.0
sg22
F7427621.0
sg23
g24
sg25
F2000000.0
sg26
F14622185.0
sg27
F6.0
sg28
F4188667.0
sg29
F1060932.0
sg30
F17252530.0
sg31
F0.2857142857142857
sg32
F10433518.0
ssS'PAI LOU L'
p402
(dp403
g3
g36
sg4
g5
sg6
F32047.0
sg7
I00
sg8
g9
sg10
S'lou.pai@enron.com'
p404
sg12
g38
sg13
g14
sg15
g39
sg16
g17
sg18
g40
sg19
g20
sg21
g41
sg22
F1829457.0
sg23
g24
sg25
F1000000.0
sg26
F23817930.0
sg27
g42
sg28
F8453763.0
sg29
F261879.0
sg30
F3123383.0
sg31
g43
sg32
F15364167.0
ssS'BAY FRANKLIN R'
p405
(dp406
g3
g36
sg4
F260455.0
sg6
F129142.0
sg7
I00
sg8
g9
sg10
S'frank.bay@enron.com'
p407
sg12
g38
sg13
F-201641.0
sg15
g39
sg16
F-82782.0
sg18
g40
sg19
g20
sg21
g41
sg22
F69.0
sg23
g24
sg25
F400000.0
sg26
F63014.0
sg27
g42
sg28
F145796.0
sg29
F239671.0
sg30
F827696.0
sg31
g43
sg32
g33
ssS'HAYSLETT RODERICK J'
p408
(dp409
g3
F2649.0
sg4
g5
sg6
g49
sg7
I00
sg8
g9
sg10
S'rod.hayslett@enron.com'
p410
sg12
F35.0
sg13
g14
sg15
F0.01321253303133258
sg16
g17
sg18
F571.0
sg19
g20
sg21
F1061.0
sg22
g51
sg23
g24
sg25
g52
sg26
F346663.0
sg27
F38.0
sg28
F346663.0
sg29
g53
sg30
g54
sg31
F0.03581526861451461
sg32
g33
ssS'FUGH JOHN L'
p411
(dp412
g3
g36
sg4
F50591.0
sg6
g49
sg7
I00
sg8
g9
sg10
g37
sg12
g38
sg13
g14
sg15
g39
sg16
g17
sg18
g40
sg19
g20
sg21
g41
sg22
g51
sg23
g24
sg25
g52
sg26
F176378.0
sg27
g42
sg28
g76
sg29
g53
sg30
F50591.0
sg31
g43
sg32
F176378.0
ssS'FALLON JAMES B'
p413
(dp414
g3
F1755.0
sg4
g5
sg6
F95924.0
sg7
I00
sg8
F374347.0
sg10
S'jim.fallon@enron.com'
p415
sg12
F42.0
sg13
g14
sg15
F0.023931623931623933
sg16
g17
sg18
F1604.0
sg19
g20
sg21
F75.0
sg22
F401481.0
sg23
g24
sg25
F2500000.0
sg26
F2332399.0
sg27
F37.0
sg28
F1392142.0
sg29
F304588.0
sg30
F3676340.0
sg31
F0.49333333333333335
sg32
F940257.0
ssS'KOENIG MARK E'
p416
(dp417
g3
F2374.0
sg4
g5
sg6
F127017.0
sg7
I01
sg8
F300000.0
sg10
S'mark.koenig@enron.com'
p418
sg12
F53.0
sg13
g14
sg15
F0.02232518955349621
sg16
g17
sg18
F2271.0
sg19
g20
sg21
F61.0
sg22
F150458.0
sg23
g24
sg25
F700000.0
sg26
F1920055.0
sg27
F15.0
sg28
F1248318.0
sg29
F309946.0
sg30
F1587421.0
sg31
F0.2459016393442623
sg32
F671737.0
ssS'SAVAGE FRANK'
p419
(dp420
g3
g36
sg4
g5
sg6
g49
sg7
I00
sg8
g9
sg10
g37
sg12
g38
sg13
F-121284.0
sg15
g39
sg16
g17
sg18
g40
sg19
g20
sg21
g41
sg22
g51
sg23
F125034.0
sg25
g52
sg26
g80
sg27
g42
sg28
g76
sg29
g53
sg30
F3750.0
sg31
g43
sg32
g33
ssS'IZZO LAWRENCE L'
p421
(dp422
g3
F496.0
sg4
g5
sg6
F28093.0
sg7
I00
sg8
F312500.0
sg10
S'larry.izzo@enron.com'
p423
sg12
F28.0
sg13
g14
sg15
F0.056451612903225805
sg16
g17
sg18
F437.0
sg19
g20
sg21
F19.0
sg22
F1553729.0
sg23
g24
sg25
g52
sg26
F5819980.0
sg27
F5.0
sg28
F3654808.0
sg29
F85274.0
sg30
F1979596.0
sg31
F0.2631578947368421
sg32
F2165172.0
ssS'TILNEY ELIZABETH A'
p424
(dp425
g3
F460.0
sg4
g5
sg6
g49
sg7
I00
sg8
F275000.0
sg10
S'elizabeth.tilney@enron.com'
p426
sg12
F10.0
sg13
F-575000.0
sg15
F0.021739130434782608
sg16
g17
sg18
F379.0
sg19
g20
sg21
F19.0
sg22
F152055.0
sg23
g24
sg25
F300000.0
sg26
F1168042.0
sg27
F11.0
sg28
F576792.0
sg29
F247338.0
sg30
F399393.0
sg31
F0.5789473684210527
sg32
F591250.0
ssS'MARTIN AMANDA K'
p427
(dp428
g3
F1522.0
sg4
F85430.0
sg6
F8211.0
sg7
I00
sg8
F5145434.0
sg10
S'a..martin@enron.com'
p429
sg12
F8.0
sg13
g14
sg15
F0.005256241787122208
sg16
g17
sg18
F477.0
sg19
g20
sg21
F230.0
sg22
F2818454.0
sg23
g24
sg25
g52
sg26
F2070306.0
sg27
F0.0
sg28
g76
sg29
F349487.0
sg30
F8407016.0
sg31
F0.0
sg32
F2070306.0
ssS'BUY RICHARD B'
p430
(dp431
g3
F3523.0
sg4
F649584.0
sg6
g49
sg7
I00
sg8
F769862.0
sg10
S'rick.buy@enron.com'
p432
sg12
F156.0
sg13
F-694862.0
sg15
F0.04428044280442804
sg16
g17
sg18
F2333.0
sg19
g20
sg21
F1053.0
sg22
F400572.0
sg23
g24
sg25
F900000.0
sg26
F3444470.0
sg27
F71.0
sg28
F901657.0
sg29
F330546.0
sg30
F2355702.0
sg31
F0.06742640075973409
sg32
F2542813.0
ssS'GRAMM WENDY L'
p433
(dp434
g3
g36
sg4
g5
sg6
g49
sg7
I00
sg8
g9
sg10
g37
sg12
g38
sg13
g14
sg15
g39
sg16
g17
sg18
g40
sg19
g20
sg21
g41
sg22
g51
sg23
F119292.0
sg25
g52
sg26
g80
sg27
g42
sg28
g76
sg29
g53
sg30
F119292.0
sg31
g43
sg32
g33
ssS'CAUSEY RICHARD A'
p435
(dp436
g3
F1892.0
sg4
g5
sg6
F30674.0
sg7
I01
sg8
F350000.0
sg10
S'richard.causey@enron.com'
p437
sg12
F58.0
sg13
F-235000.0
sg15
F0.0306553911205074
sg16
g17
sg18
F1585.0
sg19
g20
sg21
F49.0
sg22
F307895.0
sg23
g24
sg25
F1000000.0
sg26
F2502063.0
sg27
F12.0
sg28
F2502063.0
sg29
F415189.0
sg30
F1868758.0
sg31
F0.24489795918367346
sg32
g33
ssS'TAYLOR MITCHELL S'
p438
(dp439
g3
F533.0
sg4
F227449.0
sg6
g49
sg7
I00
sg8
g9
sg10
S'mitchell.taylor@enron.com'
p440
sg12
F0.0
sg13
g14
sg15
F0.0
sg16
g17
sg18
F300.0
sg19
g20
sg21
F29.0
sg22
g51
sg23
g24
sg25
F600000.0
sg26
F3745048.0
sg27
F0.0
sg28
F563798.0
sg29
F265214.0
sg30
F1092663.0
sg31
F0.0
sg32
F3181250.0
ssS'DONAHUE JR JEFFREY M'
p441
(dp442
g3
F865.0
sg4
g5
sg6
F96268.0
sg7
I00
sg8
g9
sg10
S'jeff.donahue@enron.com'
p443
sg12
F188.0
sg13
F-300000.0
sg15
F0.21734104046242775
sg16
g17
sg18
F772.0
sg19
g20
sg21
F22.0
sg22
F891.0
sg23
g24
sg25
F800000.0
sg26
F1080988.0
sg27
F11.0
sg28
F315068.0
sg29
F278601.0
sg30
F875760.0
sg31
F0.5
sg32
F765920.0
ssS'GLISAN JR BEN F'
p444
(dp445
g3
F873.0
sg4
g5
sg6
F125978.0
sg7
I01
sg8
F71023.0
sg10
S'ben.glisan@enron.com'
p446
sg12
F52.0
sg13
g14
sg15
F0.05956471935853379
sg16
g17
sg18
F874.0
sg19
g20
sg21
F16.0
sg22
F200308.0
sg23
g24
sg25
F600000.0
sg26
F778546.0
sg27
F6.0
sg28
F393818.0
sg29
F274975.0
sg30
F1272284.0
sg31
F0.375
sg32
F384728.0
ss.