(lp0
S'poi'
p1
aS'fraction_from_poi'
p2
aS'fraction_to_poi'
p3
aS'salary'
p4
aS'to_messages'
p5
aS'deferral_payments'
p6
aS'total_payments'
p7
aS'exercised_stock_options'
p8
aS'bonus'
p9
aS'restricted_stock'
p10
aS'shared_receipt_with_poi'
p11
aS'total_stock_value'
p12
aS'expenses'
p13
aS'from_messages'
p14
aS'other'
p15
aS'from_this_person_to_poi'
p16
aS'deferred_income'
p17
aS'long_term_incentive'
p18
aS'from_poi_to_this_person'
p19
a.